target datalayout = "e-m:e-p270:32:32-p271:32:32-p272:64:64-i64:64-i128:128-f80:128-n8:16:32:64-S128"
target triple = "x86_64-pc-linux-gnu"

%struct.node_record = type { ptr, ptr, i16, i64, i64, ptr, ptr, ptr, i16, ptr, i16, i16, i32, i32, i64, ptr, i16, i16, ptr, ptr, ptr, ptr, ptr, i64, i64, ptr, ptr, ptr, ptr, i32, ptr, ptr, i64, i64, i32, ptr, i64, ptr, i32, i16, ptr, ptr, i32, ptr, i32, i8, ptr, i32, i16, i16, ptr, i16, i64, i16, i64, ptr, i64, i32, i16, i64, i16, ptr, i16, i64, ptr, i64, i16, i32, i16, ptr, ptr, ptr, i16, i32, i16, i16, i32, ptr, i16, i32 }

@last_node_update = external global i64, align 8
@.str.126 = private unnamed_addr constant [43 x i8] c"reset_node_free_mem unable to find node %s\00", align 1

; Function Attrs: nounwind uwtable
define dso_local void @reset_node_free_mem(ptr noundef %0, i64 noundef %1) #0 {
  %3 = alloca ptr, align 8
  %4 = alloca i64, align 8
  %5 = alloca ptr, align 8
  %6 = alloca i64, align 8
  store ptr %0, ptr %3, align 8
  store i64 %1, ptr %4, align 8
  call void @llvm.lifetime.start.p0(i64 8, ptr %5) #10
  %7 = load ptr, ptr %3, align 8
  %8 = call ptr @find_node_record(ptr noundef %7)
  store ptr %8, ptr %5, align 8
  %9 = load ptr, ptr %5, align 8
  %10 = icmp ne ptr %9, null
  br i1 %10, label %11, label %20

11:                                               ; preds = %2
  call void @llvm.lifetime.start.p0(i64 8, ptr %6) #10
  %12 = call i64 @time(ptr noundef null) #10
  store i64 %12, ptr %6, align 8
  %13 = load i64, ptr %4, align 8
  %14 = load ptr, ptr %5, align 8
  %15 = getelementptr inbounds nuw %struct.node_record, ptr %14, i32 0, i32 23
  store i64 %13, ptr %15, align 8
  %16 = load i64, ptr %6, align 8
  %17 = load ptr, ptr %5, align 8
  %18 = getelementptr inbounds nuw %struct.node_record, ptr %17, i32 0, i32 24
  store i64 %16, ptr %18, align 8
  %19 = load i64, ptr %6, align 8
  store i64 %19, ptr @last_node_update, align 8
  call void @llvm.lifetime.end.p0(i64 8, ptr %6) #10
  br label %23

20:                                               ; preds = %2
  %21 = load ptr, ptr %3, align 8
  %22 = call i32 (ptr, ...) @error(ptr noundef @.str.126, ptr noundef %21)
  br label %23

23:                                               ; preds = %20, %11
  call void @llvm.lifetime.end.p0(i64 8, ptr %5) #10
  ret void
}