; Function Attrs: nounwind uwtable
define dso_local void @reset_node_free_mem(ptr noundef %0, i64 noundef %1) local_unnamed_addr #0 {
  %3 = tail call ptr @find_node_record(ptr noundef %0) #15
  %.not = icmp eq ptr %3, null
  br i1 %.not, label %8, label %4

4:                                                ; preds = %2
  %5 = tail call i64 @time(ptr noundef null) #15
  %6 = getelementptr inbounds nuw i8, ptr %3, i64 160
  store i64 %1, ptr %6, align 8
  %7 = getelementptr inbounds nuw i8, ptr %3, i64 168
  store i64 %5, ptr %7, align 8
  store i64 %5, ptr @last_node_update, align 8
  br label %10

8:                                                ; preds = %2
  %9 = tail call i32 (ptr, ...) @error(ptr noundef nonnull @.str.126, ptr noundef %0) #15
  br label %10

10:                                               ; preds = %8, %4
  ret void
}